; Function Attrs: mustprogress nounwind uwtable
define dso_local range(i32 0, 2) i32 @LLVMObjectFileIsSectionIteratorAtEnd(ptr noundef %0, ptr nocapture noundef readonly %1) local_unnamed_addr #0 {
  %3 = load ptr, ptr %0, align 8
  %4 = getelementptr inbounds i8, ptr %3, i64 360
  %5 = load ptr, ptr %4, align 8
  %6 = tail call { i64, ptr } %5(ptr noundef nonnull align 8 dereferenceable(48) %0) #17
  %7 = extractvalue { i64, ptr } %6, 0
  %8 = extractvalue { i64, ptr } %6, 1
  %9 = getelementptr inbounds nuw i8, ptr %1, i64 8
  %10 = load ptr, ptr %9, align 8
  %11 = icmp eq ptr %10, %8
  %lhsv.i.i.i = load i64, ptr %1, align 8
  %.not.i.i.i = icmp eq i64 %lhsv.i.i.i, %7
  %12 = select i1 %11, i1 %.not.i.i.i, i1 false
  %13 = zext i1 %12 to i32
  ret i32 %13
}